; Function Attrs: mustprogress uwtable
define hidden noundef zeroext i1 @_ZN4cvc58internal6theory7strings12RegExpEntail14regExpIncludesENS0_12NodeTemplateILb1EEES5_(ptr noundef readonly captures(none) %0, ptr noundef readonly captures(none) %1) local_unnamed_addr #3 align 2 personality ptr @__gxx_personality_v0 {
  %3 = alloca %"class.std::map.119", align 8
  %4 = alloca %"class.cvc5::internal::NodeTemplate", align 8
  %5 = alloca %"class.cvc5::internal::NodeTemplate", align 8
  call void @llvm.lifetime.start.p0(i64 48, ptr nonnull %3) #22
  %6 = getelementptr inbounds nuw i8, ptr %3, i64 8
  store i32 0, ptr %6, align 8, !tbaa !346
  %7 = getelementptr inbounds nuw i8, ptr %3, i64 16
  store ptr null, ptr %7, align 8, !tbaa !13
  %8 = getelementptr inbounds nuw i8, ptr %3, i64 24
  store ptr %6, ptr %8, align 8, !tbaa !347
  %9 = getelementptr inbounds nuw i8, ptr %3, i64 32
  store ptr %6, ptr %9, align 8, !tbaa !348
  %10 = getelementptr inbounds nuw i8, ptr %3, i64 40
  store i64 0, ptr %10, align 8, !tbaa !349
  %11 = load ptr, ptr %0, align 8, !tbaa !9
  store ptr %11, ptr %4, align 8, !tbaa !9
  %12 = load i64, ptr %11, align 8
  %13 = lshr i64 %12, 40
  %14 = trunc nuw nsw i64 %13 to i32
  %15 = and i32 %14, 1048575
  %16 = icmp samesign ult i32 %15, 1048574
  br i1 %16, label %17, label %22, !prof !12

17:                                               ; preds = %2
  %18 = add i64 %12, 1099511627776
  %19 = and i64 %18, 1152920405095219200
  %20 = and i64 %12, -1152920405095219201
  %21 = or disjoint i64 %19, %20
  store i64 %21, ptr %11, align 8
  br label %_ZN4cvc58internal12NodeTemplateILb1EEC2ERKS2_.exit

22:                                               ; preds = %2
  %23 = icmp eq i32 %15, 1048574
  br i1 %23, label %24, label %_ZN4cvc58internal12NodeTemplateILb1EEC2ERKS2_.exit, !prof !11

24:                                               ; preds = %22
  %25 = or i64 %12, 1152920405095219200
  store i64 %25, ptr %11, align 8
  invoke void @_ZN4cvc58internal4expr9NodeValue20markRefCountMaxedOutEv(ptr noundef nonnull align 8 dereferenceable(24) %11)
          to label %_ZN4cvc58internal12NodeTemplateILb1EEC2ERKS2_.exit unwind label %73

_ZN4cvc58internal12NodeTemplateILb1EEC2ERKS2_.exit: ; preds = %22, %17, %24
  %26 = load ptr, ptr %1, align 8, !tbaa !9
  store ptr %26, ptr %5, align 8, !tbaa !9
  %27 = load i64, ptr %26, align 8
  %28 = lshr i64 %27, 40
  %29 = trunc nuw nsw i64 %28 to i32
  %30 = and i32 %29, 1048575
  %31 = icmp samesign ult i32 %30, 1048574
  br i1 %31, label %32, label %37, !prof !12

32:                                               ; preds = %_ZN4cvc58internal12NodeTemplateILb1EEC2ERKS2_.exit
  %33 = add i64 %27, 1099511627776
  %34 = and i64 %33, 1152920405095219200
  %35 = and i64 %27, -1152920405095219201
  %36 = or disjoint i64 %34, %35
  store i64 %36, ptr %26, align 8
  br label %_ZN4cvc58internal12NodeTemplateILb1EEC2ERKS2_.exit6

37:                                               ; preds = %_ZN4cvc58internal12NodeTemplateILb1EEC2ERKS2_.exit
  %38 = icmp eq i32 %30, 1048574
  br i1 %38, label %39, label %_ZN4cvc58internal12NodeTemplateILb1EEC2ERKS2_.exit6, !prof !11

39:                                               ; preds = %37
  %40 = or i64 %27, 1152920405095219200
  store i64 %40, ptr %26, align 8
  invoke void @_ZN4cvc58internal4expr9NodeValue20markRefCountMaxedOutEv(ptr noundef nonnull align 8 dereferenceable(24) %26)
          to label %_ZN4cvc58internal12NodeTemplateILb1EEC2ERKS2_.exit6 unwind label %75

_ZN4cvc58internal12NodeTemplateILb1EEC2ERKS2_.exit6: ; preds = %37, %32, %39
  %41 = invoke noundef zeroext i1 @_ZN4cvc58internal6theory7strings12RegExpEntail14regExpIncludesENS0_12NodeTemplateILb1EEES5_RSt3mapISt4pairIS5_S5_EbSt4lessIS8_ESaIS7_IKS8_bEEE(ptr noundef nonnull %4, ptr noundef nonnull %5, ptr noundef nonnull align 8 dereferenceable(48) %3)
          to label %42 unwind label %77

42:                                               ; preds = %_ZN4cvc58internal12NodeTemplateILb1EEC2ERKS2_.exit6
  %43 = load ptr, ptr %5, align 8, !tbaa !9
  %44 = load i64, ptr %43, align 8
  %45 = and i64 %44, 1152920405095219200
  %.not.i.i = icmp eq i64 %45, 1152920405095219200
  br i1 %.not.i.i, label %_ZN4cvc58internal12NodeTemplateILb1EED2Ev.exit, label %46, !prof !11

46:                                               ; preds = %42
  %47 = add i64 %44, 1152920405095219200
  %48 = and i64 %47, 1152920405095219200
  %49 = and i64 %44, -1152920405095219201
  %50 = or disjoint i64 %48, %49
  store i64 %50, ptr %43, align 8
  %51 = icmp eq i64 %48, 0
  br i1 %51, label %52, label %_ZN4cvc58internal12NodeTemplateILb1EED2Ev.exit, !prof !11

52:                                               ; preds = %46
  invoke void @_ZN4cvc58internal4expr9NodeValue15markForDeletionEv(ptr noundef nonnull align 8 dereferenceable(24) %43)
          to label %_ZN4cvc58internal12NodeTemplateILb1EED2Ev.exit unwind label %53

53:                                               ; preds = %52
  %54 = landingpad { ptr, i32 }
          catch ptr null
  %55 = extractvalue { ptr, i32 } %54, 0
  call void @__clang_call_terminate(ptr %55) #24
  unreachable

_ZN4cvc58internal12NodeTemplateILb1EED2Ev.exit:   ; preds = %42, %46, %52
  %56 = load ptr, ptr %4, align 8, !tbaa !9
  %57 = load i64, ptr %56, align 8
  %58 = and i64 %57, 1152920405095219200
  %.not.i.i7 = icmp eq i64 %58, 1152920405095219200
  br i1 %.not.i.i7, label %_ZN4cvc58internal12NodeTemplateILb1EED2Ev.exit8, label %59, !prof !11

59:                                               ; preds = %_ZN4cvc58internal12NodeTemplateILb1EED2Ev.exit
  %60 = add i64 %57, 1152920405095219200
  %61 = and i64 %60, 1152920405095219200
  %62 = and i64 %57, -1152920405095219201
  %63 = or disjoint i64 %61, %62
  store i64 %63, ptr %56, align 8
  %64 = icmp eq i64 %61, 0
  br i1 %64, label %65, label %_ZN4cvc58internal12NodeTemplateILb1EED2Ev.exit8, !prof !11

65:                                               ; preds = %59
  invoke void @_ZN4cvc58internal4expr9NodeValue15markForDeletionEv(ptr noundef nonnull align 8 dereferenceable(24) %56)
          to label %_ZN4cvc58internal12NodeTemplateILb1EED2Ev.exit8 unwind label %66

66:                                               ; preds = %65
  %67 = landingpad { ptr, i32 }
          catch ptr null
  %68 = extractvalue { ptr, i32 } %67, 0
  call void @__clang_call_terminate(ptr %68) #24
  unreachable

_ZN4cvc58internal12NodeTemplateILb1EED2Ev.exit8:  ; preds = %_ZN4cvc58internal12NodeTemplateILb1EED2Ev.exit, %59, %65
  %69 = load ptr, ptr %7, align 8, !tbaa !13
  invoke void @_ZNSt8_Rb_treeISt4pairIN4cvc58internal12NodeTemplateILb1EEES4_ES0_IKS5_bESt10_Select1stIS7_ESt4lessIS5_ESaIS7_EE8_M_eraseEPSt13_Rb_tree_nodeIS7_E(ptr noundef nonnull align 8 dereferenceable(48) %3, ptr noundef %69)
          to label %_ZNSt3mapISt4pairIN4cvc58internal12NodeTemplateILb1EEES4_EbSt4lessIS5_ESaIS0_IKS5_bEEED2Ev.exit unwind label %70

70:                                               ; preds = %_ZN4cvc58internal12NodeTemplateILb1EED2Ev.exit8
  %71 = landingpad { ptr, i32 }
          catch ptr null
  %72 = extractvalue { ptr, i32 } %71, 0
  call void @__clang_call_terminate(ptr %72) #24
  unreachable

_ZNSt3mapISt4pairIN4cvc58internal12NodeTemplateILb1EEES4_EbSt4lessIS5_ESaIS0_IKS5_bEEED2Ev.exit: ; preds = %_ZN4cvc58internal12NodeTemplateILb1EED2Ev.exit8
  call void @llvm.lifetime.end.p0(i64 48, ptr nonnull %3) #22
  ret i1 %41

73:                                               ; preds = %24
  %74 = landingpad { ptr, i32 }
          cleanup
  br label %80

75:                                               ; preds = %39
  %76 = landingpad { ptr, i32 }
          cleanup
  br label %79

77:                                               ; preds = %_ZN4cvc58internal12NodeTemplateILb1EEC2ERKS2_.exit6
  %78 = landingpad { ptr, i32 }
          cleanup
  call void @_ZN4cvc58internal12NodeTemplateILb1EED2Ev(ptr noundef nonnull align 8 dereferenceable(8) %5) #22
  br label %79

79:                                               ; preds = %77, %75
  %.pn = phi { ptr, i32 } [ %78, %77 ], [ %76, %75 ]
  call void @_ZN4cvc58internal12NodeTemplateILb1EED2Ev(ptr noundef nonnull align 8 dereferenceable(8) %4) #22
  br label %80

80:                                               ; preds = %79, %73
  %.pn.pn = phi { ptr, i32 } [ %.pn, %79 ], [ %74, %73 ]
  call void @_ZNSt3mapISt4pairIN4cvc58internal12NodeTemplateILb1EEES4_EbSt4lessIS5_ESaIS0_IKS5_bEEED2Ev(ptr noundef nonnull align 8 dereferenceable(48) %3) #22
  call void @llvm.lifetime.end.p0(i64 48, ptr nonnull %3) #22
  resume { ptr, i32 } %.pn.pn
}